; Function Attrs: nounwind uwtable
define ptr @l_Lean_PersistentArray_findSomeRevMAux___at___private_Lean_Meta_Tactic_SplitIf_0__Lean_Meta_SplitIf_discharge_x3f___spec__4(ptr noundef %0, ptr noundef %1, ptr noundef %2, ptr noundef readnone captures(none) %3, ptr noundef readnone captures(none) %4, ptr noundef readnone captures(none) %5, ptr noundef %6, ptr noundef %7, ptr noundef %8, ptr noundef %9, ptr noundef %10) local_unnamed_addr #1 {
  %12 = ptrtoint ptr %2 to i64
  %13 = and i64 %12, 1
  %.not.i = icmp eq i64 %13, 0
  br i1 %.not.i, label %17, label %14

14:                                               ; preds = %11
  %15 = lshr i64 %12, 1
  %16 = trunc i64 %15 to i32
  br label %lean_obj_tag.exit

17:                                               ; preds = %11
  %18 = getelementptr i8, ptr %2, i64 4
  %.val.i = load i32, ptr %18, align 4
  %19 = lshr i32 %.val.i, 24
  br label %lean_obj_tag.exit

lean_obj_tag.exit:                                ; preds = %14, %17
  %.0.i = phi i32 [ %16, %14 ], [ %19, %17 ]
  %20 = icmp eq i32 %.0.i, 0
  %21 = getelementptr inbounds nuw i8, ptr %2, i64 8
  %22 = load ptr, ptr %21, align 8, !tbaa !10
  %23 = getelementptr i8, ptr %22, i64 8
  %.val32 = load i64, ptr %23, align 8, !tbaa !16
  %24 = shl i64 %.val32, 1
  %25 = or disjoint i64 %24, 1
  %26 = inttoptr i64 %25 to ptr
  br i1 %20, label %27, label %29

27:                                               ; preds = %lean_obj_tag.exit
  %28 = tail call ptr @l_Array_findSomeRevM_x3f_find___at___private_Lean_Meta_Tactic_SplitIf_0__Lean_Meta_SplitIf_discharge_x3f___spec__5(ptr noundef %0, ptr noundef %1, ptr noundef %22, ptr noundef nonnull %26, ptr nonnull poison, ptr noundef %3, ptr noundef %4, ptr noundef %5, ptr noundef %6, ptr noundef %7, ptr noundef %8, ptr noundef %9, ptr noundef %10)
  br label %31

29:                                               ; preds = %lean_obj_tag.exit
  %30 = tail call ptr @l_Array_findSomeRevM_x3f_find___at___private_Lean_Meta_Tactic_SplitIf_0__Lean_Meta_SplitIf_discharge_x3f___spec__6(ptr noundef %0, ptr noundef %1, ptr noundef %22, ptr noundef nonnull %26, ptr nonnull poison, ptr poison, ptr poison, ptr poison, ptr noundef %6, ptr noundef %7, ptr noundef %8, ptr noundef %9, ptr noundef %10)
  br label %31

31:                                               ; preds = %29, %27
  %.0 = phi ptr [ %28, %27 ], [ %30, %29 ]
  ret ptr %.0
}